issuer :/C=US/ST=Cafifornia/O=Scriptics Corporation
subject:/C=US/ST=Cafifornia/O=Scriptics Corporation/OU=Client Test Certificate/CN=client.connect.scriptics.com
serial :06

Certificate:
    Data:
        Version: 3 (0x2)
        Serial Number: 6 (0x6)
        Signature Algorithm: md5WithRSAEncryption
        Issuer: C=US, ST=Cafifornia, O=Scriptics Corporation
        Validity
            Not Before: Mar 11 01:25:06 2000 GMT
            Not After : Mar 11 01:25:06 2001 GMT
        Subject: C=US, ST=Cafifornia, O=Scriptics Corporation, OU=Client Test Certificate, CN=client.connect.scriptics.com
        Subject Public Key Info:
            Public Key Algorithm: rsaEncryption
            RSA Public Key: (512 bit)
                Modulus (512 bit):
                    00:b3:3c:17:1d:94:9c:e4:80:eb:91:4a:c3:52:5e:
                    6d:6a:b9:93:dd:86:d9:fa:d3:03:90:86:78:26:9f:
                    49:01:b6:53:22:46:73:92:3c:1e:ee:dc:9b:e4:61:
                    a0:ca:7a:0b:9f:71:4c:ab:c7:b9:0e:d6:97:bd:37:
                    b8:84:64:70:49
                Exponent: 65537 (0x10001)
        X509v3 extensions:
            Netscape Comment: 
                Generated with RSA BSAFE SSL-C
    Signature Algorithm: md5WithRSAEncryption
        c0:d5:72:81:a0:23:c7:24:82:ef:84:e4:d7:59:b8:85:25:78:
        ae:60:18:ff:73:1c:c8:8c:5b:20:96:95:7b:34:ff:6c:df:c4:
        e7:c2:eb:0d:de:74:49:7c:49:98:89:64:5b:76:81:f2:c8:c0:
        dd:76:b5:d7:35:a6:e5:95:a0:81

-----BEGIN CERTIFICATE-----
MIIB8DCCAZqgAwIBAgIBBjANBgkqhkiG9w0BAQQFADBCMQswCQYDVQQGEwJVUzET
MBEGA1UECBMKQ2FmaWZvcm5pYTEeMBwGA1UEChMVU2NyaXB0aWNzIENvcnBvcmF0
aW9uMB4XDTAwMDMxMTAxMjUwNloXDTAxMDMxMTAxMjUwNlowgYsxCzAJBgNVBAYT
AlVTMRMwEQYDVQQIEwpDYWZpZm9ybmlhMR4wHAYDVQQKExVTY3JpcHRpY3MgQ29y
cG9yYXRpb24xIDAeBgNVBAsTF0NsaWVudCBUZXN0IENlcnRpZmljYXRlMSUwIwYD
VQQDExxjbGllbnQuY29ubmVjdC5zY3JpcHRpY3MuY29tMFwwDQYJKoZIhvcNAQEB
BQADSwAwSAJBALM8Fx2UnOSA65FKw1JebWq5k92G2frTA5CGeCafSQG2UyJGc5I8
Hu7cm+RhoMp6C59xTKvHuQ7Wl703uIRkcEkCAwEAAaMxMC8wLQYJYIZIAYb4QgEN
BCAWHkdlbmVyYXRlZCB3aXRoIFJTQSBCU0FGRSBTU0wtQzANBgkqhkiG9w0BAQQF
AANBAMDVcoGgI8ckgu+E5NdZuIUleK5gGP9zHMiMWyCWlXs0/2zfxOfC6w3edEl8
SZiJZFt2gfLIwN12tdc1puWVoIE=
-----END CERTIFICATE-----

