issuer :/C=US/ST=Cafifornia/O=Scriptics Corporation
subject:/C=US/ST=Cafifornia/O=Scriptics Corporation/OU=Server Test Certificate/CN=server.connect.scriptics.com
serial :05

Certificate:
    Data:
        Version: 3 (0x2)
        Serial Number: 5 (0x5)
        Signature Algorithm: md5WithRSAEncryption
        Issuer: C=US, ST=Cafifornia, O=Scriptics Corporation
        Validity
            Not Before: Mar 11 01:22:57 2000 GMT
            Not After : Mar 11 01:22:57 2001 GMT
        Subject: C=US, ST=Cafifornia, O=Scriptics Corporation, OU=Server Test Certificate, CN=server.connect.scriptics.com
        Subject Public Key Info:
            Public Key Algorithm: rsaEncryption
            RSA Public Key: (512 bit)
                Modulus (512 bit):
                    00:c3:0a:c8:c5:78:a7:5d:d5:29:8e:16:90:49:b1:
                    cc:95:48:5f:1f:65:c5:f4:94:ac:69:1c:5d:6f:64:
                    97:57:52:a8:2b:02:04:6a:8e:c6:93:a7:cd:e5:5b:
                    2c:0f:78:a5:e0:32:55:75:05:b3:b6:b0:91:6d:c4:
                    d1:a4:5a:32:73
                Exponent: 65537 (0x10001)
        X509v3 extensions:
            Netscape Comment: 
                Generated with RSA BSAFE SSL-C
    Signature Algorithm: md5WithRSAEncryption
        ac:b2:42:d7:04:6f:76:64:8d:be:c7:4c:c1:c8:5b:60:2d:e7:
        dc:c6:a6:84:76:78:c3:4d:ae:e7:33:c6:44:2e:ef:c0:a9:ff:
        80:eb:b2:55:c5:0e:a8:49:00:54:92:83:99:10:80:98:56:77:
        15:c8:ef:2d:a0:61:29:61:29:54

-----BEGIN CERTIFICATE-----
MIIB8DCCAZqgAwIBAgIBBTANBgkqhkiG9w0BAQQFADBCMQswCQYDVQQGEwJVUzET
MBEGA1UECBMKQ2FmaWZvcm5pYTEeMBwGA1UEChMVU2NyaXB0aWNzIENvcnBvcmF0
aW9uMB4XDTAwMDMxMTAxMjI1N1oXDTAxMDMxMTAxMjI1N1owgYsxCzAJBgNVBAYT
AlVTMRMwEQYDVQQIEwpDYWZpZm9ybmlhMR4wHAYDVQQKExVTY3JpcHRpY3MgQ29y
cG9yYXRpb24xIDAeBgNVBAsTF1NlcnZlciBUZXN0IENlcnRpZmljYXRlMSUwIwYD
VQQDExxzZXJ2ZXIuY29ubmVjdC5zY3JpcHRpY3MuY29tMFwwDQYJKoZIhvcNAQEB
BQADSwAwSAJBAMMKyMV4p13VKY4WkEmxzJVIXx9lxfSUrGkcXW9kl1dSqCsCBGqO
xpOnzeVbLA94peAyVXUFs7awkW3E0aRaMnMCAwEAAaMxMC8wLQYJYIZIAYb4QgEN
BCAWHkdlbmVyYXRlZCB3aXRoIFJTQSBCU0FGRSBTU0wtQzANBgkqhkiG9w0BAQQF
AANBAKyyQtcEb3Zkjb7HTMHIW2At59zGpoR2eMNNruczxkQu78Cp/4DrslXFDqhJ
AFSSg5kQgJhWdxXI7y2gYSlhKVQ=
-----END CERTIFICATE-----

